target datalayout = "e-m:e-p270:32:32-p271:32:32-p272:64:64-i64:64-i128:128-f80:128-n8:16:32:64-S128"
target triple = "x86_64-unknown-linux-gnu"

%class.rational = type { %class.mpq }
%class.mpq = type { %class.mpz, %class.mpz }
%class.mpz = type { i32, i8, ptr }
%"struct.nla::common" = type { ptr, %"class.nla::nex_creator" }
%"class.nla::nex_creator" = type { %class.ptr_vector, %"class.std::unordered_map", %"class.std::unordered_map.2", %class.svector, %"class.nla::nex_creator::mul_factory" }
%class.ptr_vector = type { %class.vector }
%class.vector = type { ptr }
%"class.std::unordered_map" = type { %"class.std::_Hashtable" }
%"class.std::_Hashtable" = type { ptr, i64, %"struct.std::__detail::_Hash_node_base", i64, %"struct.std::__detail::_Prime_rehash_policy", ptr }
%"struct.std::__detail::_Hash_node_base" = type { ptr }
%"struct.std::__detail::_Prime_rehash_policy" = type { float, i64 }
%"class.std::unordered_map.2" = type { %"class.std::_Hashtable.3" }
%"class.std::_Hashtable.3" = type { ptr, i64, %"struct.std::__detail::_Hash_node_base", i64, %"struct.std::__detail::_Prime_rehash_policy", ptr }
%class.svector = type { %class.vector.16 }
%class.vector.16 = type { ptr }
%"class.nla::nex_creator::mul_factory" = type { ptr, %class.rational, %class.vector.17 }
%class.vector.17 = type { ptr }
%"class.nla::mon_eq" = type { i32, %class.svector }

@_ZN8rational13g_mpq_managerE = external global ptr, align 8

; Function Attrs: mustprogress nounwind uwtable
define linkonce_odr hidden noundef i32 @_ZN11mpz_managerILb1EE4signERK3mpz(ptr noundef nonnull align 8 dereferenceable(16) %a) #4 comdat align 2 {
entry:
  %a.addr = alloca ptr, align 8
  store ptr %a, ptr %a.addr, align 8
  %0 = load ptr, ptr %a.addr, align 8
  %m_val = getelementptr inbounds %class.mpz, ptr %0, i32 0, i32 0
  %1 = load i32, ptr %m_val, align 8
  ret i32 %1
}

; Function Attrs: mustprogress uwtable
define linkonce_odr hidden noundef zeroext i1 @_ZN11mpz_managerILb1EE7is_zeroERK3mpz(ptr noundef nonnull align 8 dereferenceable(16) %a) #5 comdat align 2 {
entry:
  %a.addr = alloca ptr, align 8
  store ptr %a, ptr %a.addr, align 8
  %0 = load ptr, ptr %a.addr, align 8
  %call = call noundef i32 @_ZN11mpz_managerILb1EE4signERK3mpz(ptr noundef nonnull align 8 dereferenceable(16) %0)
  %cmp = icmp eq i32 %call, 0
  ret i1 %cmp
}

; Function Attrs: mustprogress uwtable
define linkonce_odr hidden noundef zeroext i1 @_ZN11mpq_managerILb1EE7is_zeroERK3mpz(ptr noundef nonnull align 8 dereferenceable(16) %a) #5 comdat align 2 {
entry:
  %a.addr = alloca ptr, align 8
  store ptr %a, ptr %a.addr, align 8
  %0 = load ptr, ptr %a.addr, align 8
  %call = call noundef zeroext i1 @_ZN11mpz_managerILb1EE7is_zeroERK3mpz(ptr noundef nonnull align 8 dereferenceable(16) %0)
  ret i1 %call
}

; Function Attrs: mustprogress uwtable
define linkonce_odr hidden noundef zeroext i1 @_ZN11mpq_managerILb1EE7is_zeroERK3mpq(ptr noundef nonnull align 8 dereferenceable(32) %a) #5 comdat align 2 {
entry:
  %a.addr = alloca ptr, align 8
  store ptr %a, ptr %a.addr, align 8
  %0 = load ptr, ptr %a.addr, align 8
  %m_num = getelementptr inbounds %class.mpq, ptr %0, i32 0, i32 0
  %call = call noundef zeroext i1 @_ZN11mpq_managerILb1EE7is_zeroERK3mpz(ptr noundef nonnull align 8 dereferenceable(16) %m_num)
  ret i1 %call
}

; Function Attrs: mustprogress nounwind uwtable
define linkonce_odr hidden noundef nonnull align 8 dereferenceable(728) ptr @_ZN8rational1mEv() #4 comdat align 2 {
entry:
  %0 = load ptr, ptr @_ZN8rational13g_mpq_managerE, align 8
  ret ptr %0
}

; Function Attrs: mustprogress uwtable
define linkonce_odr hidden noundef zeroext i1 @_ZNK8rational7is_zeroEv(ptr noundef nonnull align 8 dereferenceable(32) %this) #5 comdat align 2 {
entry:
  %this.addr = alloca ptr, align 8
  store ptr %this, ptr %this.addr, align 8
  %this1 = load ptr, ptr %this.addr, align 8
  %call = call noundef nonnull align 8 dereferenceable(728) ptr @_ZN8rational1mEv()
  %m_val = getelementptr inbounds %class.rational, ptr %this1, i32 0, i32 0
  %call2 = call noundef zeroext i1 @_ZN11mpq_managerILb1EE7is_zeroERK3mpq(ptr noundef nonnull align 8 dereferenceable(32) %m_val)
  ret i1 %call2
}

; Function Attrs: mustprogress nounwind uwtable
define linkonce_odr hidden noundef nonnull align 8 dereferenceable(4720) ptr @_ZNK3nla6common1cEv(ptr noundef nonnull align 8 dereferenceable(184) %this) #4 comdat align 2 {
entry:
  %this.addr = alloca ptr, align 8
  store ptr %this, ptr %this.addr, align 8
  %this1 = load ptr, ptr %this.addr, align 8
  %m_core = getelementptr inbounds %"struct.nla::common", ptr %this1, i32 0, i32 0
  %0 = load ptr, ptr %m_core, align 8
  ret ptr %0
}

; Function Attrs: mustprogress uwtable
define hidden noundef zeroext i1 @_ZNK3nla15monomial_bounds7is_freeEj(ptr noundef nonnull align 8 dereferenceable(192) %this, i32 noundef %v) #5 align 2 {
entry:
  %this.addr = alloca ptr, align 8
  %v.addr = alloca i32, align 4
  store ptr %this, ptr %this.addr, align 8
  store i32 %v, ptr %v.addr, align 4
  %this1 = load ptr, ptr %this.addr, align 8
  %call = call noundef nonnull align 8 dereferenceable(4720) ptr @_ZNK3nla6common1cEv(ptr noundef nonnull align 8 dereferenceable(184) %this1)
  %0 = load i32, ptr %v.addr, align 4
  %call2 = call noundef zeroext i1 @_ZNK3nla4core15has_lower_boundEj(ptr noundef nonnull align 8 dereferenceable(4720) %call, i32 noundef %0)
  br i1 %call2, label %land.end, label %land.rhs

land.rhs:                                         ; preds = %entry
  %call3 = call noundef nonnull align 8 dereferenceable(4720) ptr @_ZNK3nla6common1cEv(ptr noundef nonnull align 8 dereferenceable(184) %this1)
  %1 = load i32, ptr %v.addr, align 4
  %call4 = call noundef zeroext i1 @_ZNK3nla4core15has_upper_boundEj(ptr noundef nonnull align 8 dereferenceable(4720) %call3, i32 noundef %1)
  %lnot = xor i1 %call4, true
  br label %land.end

land.end:                                         ; preds = %land.rhs, %entry
  %2 = phi i1 [ false, %entry ], [ %lnot, %land.rhs ]
  ret i1 %2
}

; Function Attrs: mustprogress uwtable
define hidden noundef zeroext i1 @_ZNK3nla15monomial_bounds7is_zeroEj(ptr noundef nonnull align 8 dereferenceable(192) %this, i32 noundef %v) #5 align 2 {
entry:
  %this.addr = alloca ptr, align 8
  %v.addr = alloca i32, align 4
  store ptr %this, ptr %this.addr, align 8
  store i32 %v, ptr %v.addr, align 4
  %this1 = load ptr, ptr %this.addr, align 8
  %call = call noundef nonnull align 8 dereferenceable(4720) ptr @_ZNK3nla6common1cEv(ptr noundef nonnull align 8 dereferenceable(184) %this1)
  %0 = load i32, ptr %v.addr, align 4
  %call2 = call noundef zeroext i1 @_ZNK3nla4core15has_lower_boundEj(ptr noundef nonnull align 8 dereferenceable(4720) %call, i32 noundef %0)
  br i1 %call2, label %land.lhs.true, label %land.end

land.lhs.true:                                    ; preds = %entry
  %call3 = call noundef nonnull align 8 dereferenceable(4720) ptr @_ZNK3nla6common1cEv(ptr noundef nonnull align 8 dereferenceable(184) %this1)
  %1 = load i32, ptr %v.addr, align 4
  %call4 = call noundef zeroext i1 @_ZNK3nla4core15has_upper_boundEj(ptr noundef nonnull align 8 dereferenceable(4720) %call3, i32 noundef %1)
  br i1 %call4, label %land.lhs.true5, label %land.end

land.lhs.true5:                                   ; preds = %land.lhs.true
  %call6 = call noundef nonnull align 8 dereferenceable(4720) ptr @_ZNK3nla6common1cEv(ptr noundef nonnull align 8 dereferenceable(184) %this1)
  %2 = load i32, ptr %v.addr, align 4
  %call7 = call noundef nonnull align 8 dereferenceable(32) ptr @_ZNK3nla4core15get_lower_boundEj(ptr noundef nonnull align 8 dereferenceable(4720) %call6, i32 noundef %2)
  %call8 = call noundef zeroext i1 @_ZNK8rational7is_zeroEv(ptr noundef nonnull align 8 dereferenceable(32) %call7)
  br i1 %call8, label %land.rhs, label %land.end

land.rhs:                                         ; preds = %land.lhs.true5
  %call9 = call noundef nonnull align 8 dereferenceable(4720) ptr @_ZNK3nla6common1cEv(ptr noundef nonnull align 8 dereferenceable(184) %this1)
  %3 = load i32, ptr %v.addr, align 4
  %call10 = call noundef nonnull align 8 dereferenceable(32) ptr @_ZNK3nla4core15get_upper_boundEj(ptr noundef nonnull align 8 dereferenceable(4720) %call9, i32 noundef %3)
  %call11 = call noundef zeroext i1 @_ZNK8rational7is_zeroEv(ptr noundef nonnull align 8 dereferenceable(32) %call10)
  br label %land.end

land.end:                                         ; preds = %land.rhs, %land.lhs.true5, %land.lhs.true, %entry
  %4 = phi i1 [ false, %land.lhs.true5 ], [ false, %land.lhs.true ], [ false, %entry ], [ %call11, %land.rhs ]
  ret i1 %4
}

; Function Attrs: mustprogress nounwind uwtable
define linkonce_odr hidden noundef nonnull align 4 dereferenceable(4) ptr @_ZNK6vectorIjLb0EjEixEj(ptr noundef nonnull align 8 dereferenceable(8) %this, i32 noundef %idx) #4 comdat align 2 {
entry:
  %this.addr = alloca ptr, align 8
  %idx.addr = alloca i32, align 4
  store ptr %this, ptr %this.addr, align 8
  store i32 %idx, ptr %idx.addr, align 4
  %this1 = load ptr, ptr %this.addr, align 8
  %m_data = getelementptr inbounds %class.vector.16, ptr %this1, i32 0, i32 0
  %0 = load ptr, ptr %m_data, align 8
  %1 = load i32, ptr %idx.addr, align 4
  %idxprom = zext i32 %1 to i64
  %arrayidx = getelementptr inbounds i32, ptr %0, i64 %idxprom
  ret ptr %arrayidx
}

; Function Attrs: mustprogress nounwind uwtable
define linkonce_odr hidden noundef i32 @_ZNK6vectorIjLb0EjE4sizeEv(ptr noundef nonnull align 8 dereferenceable(8) %this) #4 comdat align 2 {
entry:
  %retval = alloca i32, align 4
  %this.addr = alloca ptr, align 8
  store ptr %this, ptr %this.addr, align 8
  %this1 = load ptr, ptr %this.addr, align 8
  %m_data = getelementptr inbounds %class.vector.16, ptr %this1, i32 0, i32 0
  %0 = load ptr, ptr %m_data, align 8
  %cmp = icmp eq ptr %0, null
  br i1 %cmp, label %if.then, label %if.end

if.then:                                          ; preds = %entry
  store i32 0, ptr %retval, align 4
  br label %return

if.end:                                           ; preds = %entry
  %m_data2 = getelementptr inbounds %class.vector.16, ptr %this1, i32 0, i32 0
  %1 = load ptr, ptr %m_data2, align 8
  %arrayidx = getelementptr inbounds i32, ptr %1, i64 -1
  %2 = load i32, ptr %arrayidx, align 4
  store i32 %2, ptr %retval, align 4
  br label %return

return:                                           ; preds = %if.end, %if.then
  %3 = load i32, ptr %retval, align 4
  ret i32 %3
}

; Function Attrs: mustprogress nounwind uwtable
define linkonce_odr hidden noundef nonnull align 8 dereferenceable(8) ptr @_ZNK3nla6mon_eq4varsEv(ptr noundef nonnull align 8 dereferenceable(16) %this) #4 comdat align 2 {
entry:
  %this.addr = alloca ptr, align 8
  store ptr %this, ptr %this.addr, align 8
  %this1 = load ptr, ptr %this.addr, align 8
  %m_vs = getelementptr inbounds %"class.nla::mon_eq", ptr %this1, i32 0, i32 1
  ret ptr %m_vs
}

; Function Attrs: mustprogress uwtable
define hidden void @_ZNK3nla15monomial_bounds16analyze_monomialERKNS_5monicERjS4_S4_(ptr noundef nonnull align 8 dereferenceable(192) %this, ptr noundef nonnull align 8 dereferenceable(34) %m, ptr noundef nonnull align 4 dereferenceable(4) %num_free, ptr noundef nonnull align 4 dereferenceable(4) %fv, ptr noundef nonnull align 4 dereferenceable(4) %fv_power) #5 align 2 {
entry:
  %this.addr = alloca ptr, align 8
  %m.addr = alloca ptr, align 8
  %num_free.addr = alloca ptr, align 8
  %fv.addr = alloca ptr, align 8
  %fv_power.addr = alloca ptr, align 8
  %power = alloca i32, align 4
  %i = alloca i32, align 4
  %v = alloca i32, align 4
  store ptr %this, ptr %this.addr, align 8
  store ptr %m, ptr %m.addr, align 8
  store ptr %num_free, ptr %num_free.addr, align 8
  store ptr %fv, ptr %fv.addr, align 8
  store ptr %fv_power, ptr %fv_power.addr, align 8
  %this1 = load ptr, ptr %this.addr, align 8
  store i32 1, ptr %power, align 4
  %0 = load ptr, ptr %num_free.addr, align 8
  store i32 0, ptr %0, align 4
  %1 = load ptr, ptr %fv.addr, align 8
  store i32 -1, ptr %1, align 4
  %2 = load ptr, ptr %fv_power.addr, align 8
  store i32 0, ptr %2, align 4
  store i32 0, ptr %i, align 4
  br label %for.cond

for.cond:                                         ; preds = %if.end20, %entry
  %3 = load i32, ptr %i, align 4
  %4 = load ptr, ptr %m.addr, align 8
  %call = call noundef nonnull align 8 dereferenceable(8) ptr @_ZNK3nla6mon_eq4varsEv(ptr noundef nonnull align 8 dereferenceable(16) %4)
  %call2 = call noundef i32 @_ZNK6vectorIjLb0EjE4sizeEv(ptr noundef nonnull align 8 dereferenceable(8) %call)
  %cmp = icmp ult i32 %3, %call2
  br i1 %cmp, label %for.body, label %for.end21

for.body:                                         ; preds = %for.cond
  %5 = load ptr, ptr %m.addr, align 8
  %call3 = call noundef nonnull align 8 dereferenceable(8) ptr @_ZNK3nla6mon_eq4varsEv(ptr noundef nonnull align 8 dereferenceable(16) %5)
  %6 = load i32, ptr %i, align 4
  %call4 = call noundef nonnull align 4 dereferenceable(4) ptr @_ZNK6vectorIjLb0EjEixEj(ptr noundef nonnull align 8 dereferenceable(8) %call3, i32 noundef %6)
  %7 = load i32, ptr %call4, align 4
  store i32 %7, ptr %v, align 4
  %8 = load i32, ptr %i, align 4
  %inc = add i32 %8, 1
  store i32 %inc, ptr %i, align 4
  store i32 1, ptr %power, align 4
  br label %for.cond5

for.cond5:                                        ; preds = %for.inc, %for.body
  %9 = load i32, ptr %i, align 4
  %10 = load ptr, ptr %m.addr, align 8
  %call6 = call noundef nonnull align 8 dereferenceable(8) ptr @_ZNK3nla6mon_eq4varsEv(ptr noundef nonnull align 8 dereferenceable(16) %10)
  %call7 = call noundef i32 @_ZNK6vectorIjLb0EjE4sizeEv(ptr noundef nonnull align 8 dereferenceable(8) %call6)
  %cmp8 = icmp ult i32 %9, %call7
  br i1 %cmp8, label %land.rhs, label %land.end

land.rhs:                                         ; preds = %for.cond5
  %11 = load ptr, ptr %m.addr, align 8
  %call9 = call noundef nonnull align 8 dereferenceable(8) ptr @_ZNK3nla6mon_eq4varsEv(ptr noundef nonnull align 8 dereferenceable(16) %11)
  %12 = load i32, ptr %i, align 4
  %call10 = call noundef nonnull align 4 dereferenceable(4) ptr @_ZNK6vectorIjLb0EjEixEj(ptr noundef nonnull align 8 dereferenceable(8) %call9, i32 noundef %12)
  %13 = load i32, ptr %call10, align 4
  %14 = load i32, ptr %v, align 4
  %cmp11 = icmp eq i32 %13, %14
  br label %land.end

land.end:                                         ; preds = %land.rhs, %for.cond5
  %15 = phi i1 [ false, %for.cond5 ], [ %cmp11, %land.rhs ]
  br i1 %15, label %for.body12, label %for.end

for.body12:                                       ; preds = %land.end
  br label %for.inc

for.inc:                                          ; preds = %for.body12
  %16 = load i32, ptr %i, align 4
  %inc13 = add i32 %16, 1
  store i32 %inc13, ptr %i, align 4
  %17 = load i32, ptr %power, align 4
  %inc14 = add i32 %17, 1
  store i32 %inc14, ptr %power, align 4
  br label %for.cond5, !llvm.loop !9

for.end:                                          ; preds = %land.end
  %18 = load i32, ptr %v, align 4
  %call15 = call noundef zeroext i1 @_ZNK3nla15monomial_bounds7is_zeroEj(ptr noundef nonnull align 8 dereferenceable(192) %this1, i32 noundef %18)
  br i1 %call15, label %if.then, label %if.end

if.then:                                          ; preds = %for.end
  %19 = load ptr, ptr %num_free.addr, align 8
  store i32 0, ptr %19, align 4
  br label %for.end21

if.end:                                           ; preds = %for.end
  %20 = load i32, ptr %power, align 4
  %rem = urem i32 %20, 2
  %cmp16 = icmp eq i32 %rem, 1
  br i1 %cmp16, label %land.lhs.true, label %if.end20

land.lhs.true:                                    ; preds = %if.end
  %21 = load i32, ptr %v, align 4
  %call17 = call noundef zeroext i1 @_ZNK3nla15monomial_bounds7is_freeEj(ptr noundef nonnull align 8 dereferenceable(192) %this1, i32 noundef %21)
  br i1 %call17, label %if.then18, label %if.end20

if.then18:                                        ; preds = %land.lhs.true
  %22 = load ptr, ptr %num_free.addr, align 8
  %23 = load i32, ptr %22, align 4
  %inc19 = add i32 %23, 1
  store i32 %inc19, ptr %22, align 4
  %24 = load i32, ptr %power, align 4
  %25 = load ptr, ptr %fv_power.addr, align 8
  store i32 %24, ptr %25, align 4
  %26 = load i32, ptr %v, align 4
  %27 = load ptr, ptr %fv.addr, align 8
  store i32 %26, ptr %27, align 4
  br label %if.end20

if.end20:                                         ; preds = %if.then18, %land.lhs.true, %if.end
  br label %for.cond, !llvm.loop !10

for.end21:                                        ; preds = %if.then, %for.cond
  ret void
}