; Function Attrs: mustprogress uwtable
define hidden void @_ZNK3nla15monomial_bounds16analyze_monomialERKNS_5monicERjS4_S4_(ptr nocapture noundef nonnull readonly align 8 dereferenceable(192) %this, ptr nocapture noundef nonnull readonly align 8 dereferenceable(34) %m, ptr nocapture noundef nonnull align 4 dereferenceable(4) %num_free, ptr nocapture noundef nonnull writeonly align 4 dereferenceable(4) %fv, ptr nocapture noundef nonnull writeonly align 4 dereferenceable(4) %fv_power) local_unnamed_addr #3 align 2 {
entry:
  store i32 0, ptr %num_free, align 4
  store i32 -1, ptr %fv, align 4
  store i32 0, ptr %fv_power, align 4
  %m_vs.i = getelementptr inbounds i8, ptr %m, i64 8
  br label %for.cond

for.cond:                                         ; preds = %for.cond.backedge, %entry
  %i.0 = phi i32 [ 0, %entry ], [ %i.1.lcssa, %for.cond.backedge ]
  %0 = load ptr, ptr %m_vs.i, align 8
  %cmp.i = icmp eq ptr %0, null
  br i1 %cmp.i, label %_ZNK6vectorIjLb0EjE4sizeEv.exit, label %if.end.i

if.end.i:                                         ; preds = %for.cond
  %arrayidx.i = getelementptr inbounds i8, ptr %0, i64 -4
  %1 = load i32, ptr %arrayidx.i, align 4
  br label %_ZNK6vectorIjLb0EjE4sizeEv.exit

_ZNK6vectorIjLb0EjE4sizeEv.exit:                  ; preds = %for.cond, %if.end.i
  %retval.0.i = phi i32 [ %1, %if.end.i ], [ 0, %for.cond ]
  %cmp = icmp ult i32 %i.0, %retval.0.i
  br i1 %cmp, label %for.body, label %for.end21

for.body:                                         ; preds = %_ZNK6vectorIjLb0EjE4sizeEv.exit
  %idxprom.i = zext i32 %i.0 to i64
  %arrayidx.i19 = getelementptr inbounds i32, ptr %0, i64 %idxprom.i
  %2 = load i32, ptr %arrayidx.i19, align 4
  %arrayidx.i23 = getelementptr inbounds i8, ptr %0, i64 -4
  %3 = load i32, ptr %arrayidx.i23, align 4
  %i.132 = add nuw i32 %i.0, 1
  %cmp833 = icmp ult i32 %i.132, %3
  br i1 %cmp833, label %land.rhs.preheader, label %for.end

land.rhs.preheader:                               ; preds = %for.body
  %4 = add nuw nsw i64 %idxprom.i, 1
  %5 = zext i32 %3 to i64
  %6 = sub i32 %3, %i.0
  br label %land.rhs

land.rhs:                                         ; preds = %land.rhs.preheader, %for.inc
  %indvars.iv = phi i64 [ %4, %land.rhs.preheader ], [ %indvars.iv.next, %for.inc ]
  %power.034 = phi i32 [ 1, %land.rhs.preheader ], [ %inc14, %for.inc ]
  %arrayidx.i28 = getelementptr inbounds i32, ptr %0, i64 %indvars.iv
  %7 = load i32, ptr %arrayidx.i28, align 4
  %cmp11 = icmp eq i32 %7, %2
  br i1 %cmp11, label %for.inc, label %for.end.loopexit.split.loop.exit40

for.inc:                                          ; preds = %land.rhs
  %inc14 = add i32 %power.034, 1
  %indvars.iv.next = add nuw nsw i64 %indvars.iv, 1
  %cmp8 = icmp ult i64 %indvars.iv.next, %5
  br i1 %cmp8, label %land.rhs, label %for.end, !llvm.loop !25

for.end.loopexit.split.loop.exit40:               ; preds = %land.rhs
  %8 = trunc i64 %indvars.iv to i32
  br label %for.end

for.end:                                          ; preds = %for.inc, %for.end.loopexit.split.loop.exit40, %for.body
  %power.0.lcssa = phi i32 [ 1, %for.body ], [ %power.034, %for.end.loopexit.split.loop.exit40 ], [ %6, %for.inc ]
  %i.1.lcssa = phi i32 [ %i.132, %for.body ], [ %8, %for.end.loopexit.split.loop.exit40 ], [ %3, %for.inc ]
  %9 = load ptr, ptr %this, align 8
  %call2.i = tail call noundef zeroext i1 @_ZNK3nla4core15has_lower_boundEj(ptr noundef nonnull align 8 dereferenceable(4720) %9, i32 noundef %2)
  br i1 %call2.i, label %land.lhs.true.i, label %if.end

land.lhs.true.i:                                  ; preds = %for.end
  %10 = load ptr, ptr %this, align 8
  %call4.i = tail call noundef zeroext i1 @_ZNK3nla4core15has_upper_boundEj(ptr noundef nonnull align 8 dereferenceable(4720) %10, i32 noundef %2)
  br i1 %call4.i, label %land.lhs.true5.i, label %if.end

land.lhs.true5.i:                                 ; preds = %land.lhs.true.i
  %11 = load ptr, ptr %this, align 8
  %call7.i = tail call noundef nonnull align 8 dereferenceable(32) ptr @_ZNK3nla4core15get_lower_boundEj(ptr noundef nonnull align 8 dereferenceable(4720) %11, i32 noundef %2)
  %12 = load i32, ptr %call7.i, align 8
  %cmp.i.i.i.i.i = icmp eq i32 %12, 0
  br i1 %cmp.i.i.i.i.i, label %_ZNK3nla15monomial_bounds7is_zeroEj.exit, label %if.end

_ZNK3nla15monomial_bounds7is_zeroEj.exit:         ; preds = %land.lhs.true5.i
  %13 = load ptr, ptr %this, align 8
  %call10.i = tail call noundef nonnull align 8 dereferenceable(32) ptr @_ZNK3nla4core15get_upper_boundEj(ptr noundef nonnull align 8 dereferenceable(4720) %13, i32 noundef %2)
  %14 = load i32, ptr %call10.i, align 8
  %cmp.i.i.i.i4.i = icmp eq i32 %14, 0
  br i1 %cmp.i.i.i.i4.i, label %if.then, label %if.end

if.then:                                          ; preds = %_ZNK3nla15monomial_bounds7is_zeroEj.exit
  store i32 0, ptr %num_free, align 4
  br label %for.end21

if.end:                                           ; preds = %for.end, %land.lhs.true.i, %land.lhs.true5.i, %_ZNK3nla15monomial_bounds7is_zeroEj.exit
  %rem = and i32 %power.0.lcssa, 1
  %cmp16.not = icmp eq i32 %rem, 0
  br i1 %cmp16.not, label %for.cond.backedge, label %land.lhs.true

land.lhs.true:                                    ; preds = %if.end
  %15 = load ptr, ptr %this, align 8
  %call2.i29 = tail call noundef zeroext i1 @_ZNK3nla4core15has_lower_boundEj(ptr noundef nonnull align 8 dereferenceable(4720) %15, i32 noundef %2)
  br i1 %call2.i29, label %for.cond.backedge, label %_ZNK3nla15monomial_bounds7is_freeEj.exit

for.cond.backedge:                                ; preds = %land.lhs.true, %if.then18, %_ZNK3nla15monomial_bounds7is_freeEj.exit, %if.end
  br label %for.cond, !llvm.loop !26

_ZNK3nla15monomial_bounds7is_freeEj.exit:         ; preds = %land.lhs.true
  %16 = load ptr, ptr %this, align 8
  %call4.i31 = tail call noundef zeroext i1 @_ZNK3nla4core15has_upper_boundEj(ptr noundef nonnull align 8 dereferenceable(4720) %16, i32 noundef %2)
  br i1 %call4.i31, label %for.cond.backedge, label %if.then18

if.then18:                                        ; preds = %_ZNK3nla15monomial_bounds7is_freeEj.exit
  %17 = load i32, ptr %num_free, align 4
  %inc19 = add i32 %17, 1
  store i32 %inc19, ptr %num_free, align 4
  store i32 %power.0.lcssa, ptr %fv_power, align 4
  store i32 %2, ptr %fv, align 4
  br label %for.cond.backedge

for.end21:                                        ; preds = %_ZNK6vectorIjLb0EjE4sizeEv.exit, %if.then
  ret void
}